target datalayout = "e-m:e-p270:32:32-p271:32:32-p272:64:64-i64:64-i128:128-f80:128-n8:16:32:64-S128"
target triple = "x86_64-pc-linux-gnu"

%struct._prefix_stats = type { ptr, i64, i64, i64, i64, i64, ptr }

; Function Attrs: nounwind uwtable
define dso_local void @stats_prefix_record_get(ptr noundef %0, i64 noundef %1, i1 noundef zeroext %2) #0 {
  %4 = alloca ptr, align 8
  %5 = alloca i64, align 8
  %6 = alloca i8, align 1
  %7 = alloca ptr, align 8
  store ptr %0, ptr %4, align 8, !tbaa !20
  store i64 %1, ptr %5, align 8, !tbaa !21
  %8 = zext i1 %2 to i8
  store i8 %8, ptr %6, align 1, !tbaa !22
  call void @llvm.lifetime.start.p0(i64 8, ptr %7) #9
  call void @STATS_LOCK()
  %9 = load ptr, ptr %4, align 8, !tbaa !20
  %10 = load i64, ptr %5, align 8, !tbaa !21
  %11 = call ptr @stats_prefix_find(ptr noundef %9, i64 noundef %10)
  store ptr %11, ptr %7, align 8, !tbaa !9
  %12 = load ptr, ptr %7, align 8, !tbaa !9
  %13 = icmp ne ptr null, %12
  br i1 %13, label %14, label %27

14:                                               ; preds = %3
  %15 = load ptr, ptr %7, align 8, !tbaa !9
  %16 = getelementptr inbounds nuw %struct._prefix_stats, ptr %15, i32 0, i32 2
  %17 = load i64, ptr %16, align 8, !tbaa !30
  %18 = add i64 %17, 1
  store i64 %18, ptr %16, align 8, !tbaa !30
  %19 = load i8, ptr %6, align 1, !tbaa !22, !range !25, !noundef !26
  %20 = trunc i8 %19 to i1
  br i1 %20, label %21, label %26

21:                                               ; preds = %14
  %22 = load ptr, ptr %7, align 8, !tbaa !9
  %23 = getelementptr inbounds nuw %struct._prefix_stats, ptr %22, i32 0, i32 5
  %24 = load i64, ptr %23, align 8, !tbaa !31
  %25 = add i64 %24, 1
  store i64 %25, ptr %23, align 8, !tbaa !31
  br label %26

26:                                               ; preds = %21, %14
  br label %27

27:                                               ; preds = %26, %3
  call void @STATS_UNLOCK()
  call void @llvm.lifetime.end.p0(i64 8, ptr %7) #9
  ret void
}