; Function Attrs: nounwind uwtable
define dso_local void @stats_prefix_record_get(ptr noundef %0, i64 noundef %1, i1 noundef zeroext %2) local_unnamed_addr #2 {
  tail call void @STATS_LOCK() #11
  %4 = tail call ptr @stats_prefix_find(ptr noundef %0, i64 noundef %1)
  %.not = icmp eq ptr %4, null
  br i1 %.not, label %13, label %5

5:                                                ; preds = %3
  %6 = getelementptr inbounds nuw i8, ptr %4, i64 16
  %7 = load i64, ptr %6, align 8, !tbaa !24
  %8 = add i64 %7, 1
  store i64 %8, ptr %6, align 8, !tbaa !24
  br i1 %2, label %9, label %13

9:                                                ; preds = %5
  %10 = getelementptr inbounds nuw i8, ptr %4, i64 40
  %11 = load i64, ptr %10, align 8, !tbaa !25
  %12 = add i64 %11, 1
  store i64 %12, ptr %10, align 8, !tbaa !25
  br label %13

13:                                               ; preds = %5, %9, %3
  tail call void @STATS_UNLOCK() #11
  ret void
}